# SymbolsHelper-Confirmed: 6.0.0 amd64
libKF6IdleTime.so.6 libkf6idletime6 #MINVER#
* Build-Depends-Package: libkf6idletime-dev
 _ZGVZN9QMetaType21registerConverterImplI5QListIiE9QIterableI13QMetaSequenceEEEbSt8functionIFbPKvPvEES_S_E10unregister@Base 6.0.0
 _ZGVZN9QMetaType23registerMutableViewImplI5QListIiE9QIterableI13QMetaSequenceEEEbSt8functionIFbPvS7_EES_S_E10unregister@Base 6.0.0
 _ZN13QMetaSequence12MetaSequenceI5QListIiEE5valueE@Base 6.0.0
 _ZN23KAbstractIdleTimePoller11qt_metacallEN11QMetaObject4CallEiPPv@Base 6.0.0
 _ZN23KAbstractIdleTimePoller11qt_metacastEPKc@Base 6.0.0
 _ZN23KAbstractIdleTimePoller14timeoutReachedEi@Base 6.0.0
 _ZN23KAbstractIdleTimePoller16resumingFromIdleEv@Base 6.0.0
 _ZN23KAbstractIdleTimePoller16staticMetaObjectE@Base 6.0.0
 _ZN23KAbstractIdleTimePollerC1EP7QObject@Base 6.0.0
 _ZN23KAbstractIdleTimePollerC2EP7QObject@Base 6.0.0
 _ZN23KAbstractIdleTimePollerD0Ev@Base 6.0.0
 _ZN23KAbstractIdleTimePollerD1Ev@Base 6.0.0
 _ZN23KAbstractIdleTimePollerD2Ev@Base 6.0.0
 _ZN26KWindowBasedIdleTimePoller10addTimeoutEi@Base 6.0.0
 _ZN26KWindowBasedIdleTimePoller11eventFilterEP7QObjectP6QEvent@Base 6.0.0
 _ZN26KWindowBasedIdleTimePoller11isAvailableEv@Base 6.0.0
 _ZN26KWindowBasedIdleTimePoller11qt_metacallEN11QMetaObject4CallEiPPv@Base 6.0.0
 _ZN26KWindowBasedIdleTimePoller11qt_metacastEPKc@Base 6.0.0
 _ZN26KWindowBasedIdleTimePoller11setUpPollerEv@Base 6.0.0
 _ZN26KWindowBasedIdleTimePoller12unloadPollerEv@Base 6.0.0
 _ZN26KWindowBasedIdleTimePoller13removeTimeoutEi@Base 6.0.0
 _ZN26KWindowBasedIdleTimePoller14catchIdleEventEv@Base 6.0.0
 _ZN26KWindowBasedIdleTimePoller15waitForActivityEv@Base 6.0.0
 _ZN26KWindowBasedIdleTimePoller16detectedActivityEv@Base 6.0.0
 _ZN26KWindowBasedIdleTimePoller16forcePollRequestEv@Base 6.0.0
 _ZN26KWindowBasedIdleTimePoller16releaseInputLockEv@Base 6.0.0
 _ZN26KWindowBasedIdleTimePoller16staticMetaObjectE@Base 6.0.0
 _ZN26KWindowBasedIdleTimePoller22stopCatchingIdleEventsEv@Base 6.0.0
 _ZN26KWindowBasedIdleTimePoller4pollEv@Base 6.0.0
 _ZN26KWindowBasedIdleTimePollerC1EP7QObject@Base 6.0.0
 _ZN26KWindowBasedIdleTimePollerC2EP7QObject@Base 6.0.0
 _ZN26KWindowBasedIdleTimePollerD0Ev@Base 6.0.0
 _ZN26KWindowBasedIdleTimePollerD1Ev@Base 6.0.0
 _ZN26KWindowBasedIdleTimePollerD2Ev@Base 6.0.0
 _ZN9KIdleTime11qt_metacallEN11QMetaObject4CallEiPPv@Base 6.0.0
 _ZN9KIdleTime11qt_metacastEPKc@Base 6.0.0
 _ZN9KIdleTime14addIdleTimeoutEi@Base 6.0.0
 _ZN9KIdleTime14timeoutReachedEii@Base 6.0.0
 _ZN9KIdleTime16resumingFromIdleEv@Base 6.0.0
 _ZN9KIdleTime16staticMetaObjectE@Base 6.0.0
 _ZN9KIdleTime17removeIdleTimeoutEi@Base 6.0.0
 _ZN9KIdleTime20catchNextResumeEventEv@Base 6.0.0
 _ZN9KIdleTime20simulateUserActivityEv@Base 6.0.0
 _ZN9KIdleTime21removeAllIdleTimeoutsEv@Base 6.0.0
 _ZN9KIdleTime23stopCatchingResumeEventEv@Base 6.0.0
 _ZN9KIdleTime8instanceEv@Base 6.0.0
 _ZN9KIdleTimeD0Ev@Base 6.0.0
 _ZN9KIdleTimeD1Ev@Base 6.0.0
 _ZN9KIdleTimeD2Ev@Base 6.0.0
 _ZNK23KAbstractIdleTimePoller10metaObjectEv@Base 6.0.0
 _ZNK26KWindowBasedIdleTimePoller10metaObjectEv@Base 6.0.0
 _ZNK26KWindowBasedIdleTimePoller8timeoutsEv@Base 6.0.0
 _ZNK9KIdleTime10metaObjectEv@Base 6.0.0
 _ZNK9KIdleTime12idleTimeoutsEv@Base 6.0.0
 _ZNK9KIdleTime8idleTimeEv@Base 6.0.0
 _ZTI23KAbstractIdleTimePoller@Base 6.0.0
 _ZTI26KWindowBasedIdleTimePoller@Base 6.0.0
 _ZTI9KIdleTime@Base 6.0.0
 _ZTIZN9QMetaType17registerConverterI5QListIiE9QIterableI13QMetaSequenceEN9QtPrivate33QSequentialIterableConvertFunctorIS2_EEEEbT1_EUlPKvPvE_@Base 6.0.0
 _ZTIZN9QMetaType19registerMutableViewI5QListIiE9QIterableI13QMetaSequenceEN9QtPrivate37QSequentialIterableMutableViewFunctorIS2_EEEEbT1_EUlPvSA_E_@Base 6.0.0
 _ZTS23KAbstractIdleTimePoller@Base 6.0.0
 _ZTS26KWindowBasedIdleTimePoller@Base 6.0.0
 _ZTS9KIdleTime@Base 6.0.0
 _ZTSZN9QMetaType17registerConverterI5QListIiE9QIterableI13QMetaSequenceEN9QtPrivate33QSequentialIterableConvertFunctorIS2_EEEEbT1_EUlPKvPvE_@Base 6.0.0
 _ZTSZN9QMetaType19registerMutableViewI5QListIiE9QIterableI13QMetaSequenceEN9QtPrivate37QSequentialIterableMutableViewFunctorIS2_EEEEbT1_EUlPvSA_E_@Base 6.0.0
 _ZTV23KAbstractIdleTimePoller@Base 6.0.0
 _ZTV26KWindowBasedIdleTimePoller@Base 6.0.0
 _ZTV9KIdleTime@Base 6.0.0
 (optional=templinst)_ZZN9QMetaType21registerConverterImplI5QListIiE9QIterableI13QMetaSequenceEEEbSt8functionIFbPKvPvEES_S_E10unregister@Base 6.0.0
 (optional=templinst)_ZZN9QMetaType23registerMutableViewImplI5QListIiE9QIterableI13QMetaSequenceEEEbSt8functionIFbPvS7_EES_S_E10unregister@Base 6.0.0
